target datalayout = "e-m:e-p270:32:32-p271:32:32-p272:64:64-i64:64-i128:128-f80:128-n8:16:32:64-S128"
target triple = "x86_64-pc-linux-gnu"

%"class.lean::object_ref" = type { ptr }
%"class.lean::type_checker" = type { i8, ptr, ptr, %"class.lean::local_ctx", i32, ptr }
%"class.lean::local_ctx" = type { %"class.lean::object_ref" }

; Function Attrs: inlinehint mustprogress nounwind uwtable
define internal noundef ptr @_ZL8lean_boxm(i64 noundef %0) #3 {
  %2 = alloca i64, align 8
  store i64 %0, ptr %2, align 8, !tbaa !83
  %3 = load i64, ptr %2, align 8, !tbaa !83
  %4 = shl i64 %3, 1
  %5 = or i64 %4, 1
  %6 = inttoptr i64 %5 to ptr
  ret ptr %6
}

; Function Attrs: inlinehint mustprogress uwtable
define linkonce_odr hidden noundef ptr @_ZN4lean3boxEm(i64 noundef %0) #4 comdat {
  %2 = alloca i64, align 8
  store i64 %0, ptr %2, align 8, !tbaa !83
  %3 = load i64, ptr %2, align 8, !tbaa !83
  %4 = call noundef ptr @_ZL8lean_boxm(i64 noundef %3)
  ret ptr %4
}

; Function Attrs: mustprogress uwtable
define linkonce_odr hidden void @_ZN4lean10object_refC2EOS0_(ptr noundef nonnull align 8 dereferenceable(8) %0, ptr noundef nonnull align 8 dereferenceable(8) %1) unnamed_addr #0 comdat align 2 {
  %3 = alloca ptr, align 8
  %4 = alloca ptr, align 8
  store ptr %0, ptr %3, align 8, !tbaa !195
  store ptr %1, ptr %4, align 8, !tbaa !195
  %5 = load ptr, ptr %3, align 8
  %6 = getelementptr inbounds nuw %"class.lean::object_ref", ptr %5, i32 0, i32 0
  %7 = load ptr, ptr %4, align 8, !tbaa !195
  %8 = getelementptr inbounds nuw %"class.lean::object_ref", ptr %7, i32 0, i32 0
  %9 = load ptr, ptr %8, align 8, !tbaa !197
  store ptr %9, ptr %6, align 8, !tbaa !197
  %10 = call noundef ptr @_ZN4lean3boxEm(i64 noundef 0)
  %11 = load ptr, ptr %4, align 8, !tbaa !195
  %12 = getelementptr inbounds nuw %"class.lean::object_ref", ptr %11, i32 0, i32 0
  store ptr %10, ptr %12, align 8, !tbaa !197
  ret void
}

; Function Attrs: mustprogress uwtable
define linkonce_odr hidden void @_ZN4lean9local_ctxC2EOS0_(ptr noundef nonnull align 8 dereferenceable(8) %0, ptr noundef nonnull align 8 dereferenceable(8) %1) unnamed_addr #0 comdat align 2 {
  %3 = alloca ptr, align 8
  %4 = alloca ptr, align 8
  store ptr %0, ptr %3, align 8, !tbaa !52
  store ptr %1, ptr %4, align 8, !tbaa !52
  %5 = load ptr, ptr %3, align 8
  %6 = load ptr, ptr %4, align 8, !tbaa !52
  call void @_ZN4lean10object_refC2EOS0_(ptr noundef nonnull align 8 dereferenceable(8) %5, ptr noundef nonnull align 8 dereferenceable(8) %6)
  ret void
}

; Function Attrs: mustprogress uwtable
define hidden void @_ZN4lean12type_checkerC2EOS0_(ptr noundef nonnull align 8 dereferenceable(48) %0, ptr noundef nonnull align 8 dereferenceable(48) %1) unnamed_addr #0 align 2 {
  %3 = alloca ptr, align 8
  %4 = alloca ptr, align 8
  store ptr %0, ptr %3, align 8, !tbaa !37
  store ptr %1, ptr %4, align 8, !tbaa !37
  %5 = load ptr, ptr %3, align 8
  %6 = getelementptr inbounds nuw %"class.lean::type_checker", ptr %5, i32 0, i32 0
  %7 = load ptr, ptr %4, align 8, !tbaa !37
  %8 = getelementptr inbounds nuw %"class.lean::type_checker", ptr %7, i32 0, i32 0
  %9 = load i8, ptr %8, align 8, !tbaa !219, !range !65, !noundef !66
  %10 = trunc i8 %9 to i1
  %11 = zext i1 %10 to i8
  store i8 %11, ptr %6, align 8, !tbaa !219
  %12 = getelementptr inbounds nuw %"class.lean::type_checker", ptr %5, i32 0, i32 1
  %13 = load ptr, ptr %4, align 8, !tbaa !37
  %14 = getelementptr inbounds nuw %"class.lean::type_checker", ptr %13, i32 0, i32 1
  %15 = load ptr, ptr %14, align 8, !tbaa !41
  store ptr %15, ptr %12, align 8, !tbaa !41
  %16 = getelementptr inbounds nuw %"class.lean::type_checker", ptr %5, i32 0, i32 2
  %17 = load ptr, ptr %4, align 8, !tbaa !37
  %18 = getelementptr inbounds nuw %"class.lean::type_checker", ptr %17, i32 0, i32 2
  %19 = load ptr, ptr %18, align 8, !tbaa !184
  store ptr %19, ptr %16, align 8, !tbaa !184
  %20 = getelementptr inbounds nuw %"class.lean::type_checker", ptr %5, i32 0, i32 3
  %21 = load ptr, ptr %4, align 8, !tbaa !37
  %22 = getelementptr inbounds nuw %"class.lean::type_checker", ptr %21, i32 0, i32 3
  call void @_ZN4lean9local_ctxC2EOS0_(ptr noundef nonnull align 8 dereferenceable(8) %20, ptr noundef nonnull align 8 dereferenceable(8) %22)
  %23 = getelementptr inbounds nuw %"class.lean::type_checker", ptr %5, i32 0, i32 4
  %24 = load ptr, ptr %4, align 8, !tbaa !37
  %25 = getelementptr inbounds nuw %"class.lean::type_checker", ptr %24, i32 0, i32 4
  %26 = load i32, ptr %25, align 8, !tbaa !84
  store i32 %26, ptr %23, align 8, !tbaa !84
  %27 = getelementptr inbounds nuw %"class.lean::type_checker", ptr %5, i32 0, i32 5
  %28 = load ptr, ptr %4, align 8, !tbaa !37
  %29 = getelementptr inbounds nuw %"class.lean::type_checker", ptr %28, i32 0, i32 5
  %30 = load ptr, ptr %29, align 8, !tbaa !60
  store ptr %30, ptr %27, align 8, !tbaa !60
  %31 = load ptr, ptr %4, align 8, !tbaa !37
  %32 = getelementptr inbounds nuw %"class.lean::type_checker", ptr %31, i32 0, i32 0
  store i8 0, ptr %32, align 8, !tbaa !219
  ret void
}