; Function Attrs: mustprogress nofree norecurse nosync nounwind willreturn memory(argmem: readwrite) uwtable
define hidden void @_ZN4lean12type_checkerC2EOS0_(ptr noundef nonnull writeonly align 8 captures(none) dereferenceable(48) initializes((0, 1), (8, 36), (40, 48)) %0, ptr noundef nonnull align 8 captures(none) dereferenceable(48) %1) unnamed_addr #11 align 2 {
  %3 = load i8, ptr %1, align 8, !tbaa !443, !range !50, !noundef !51
  store i8 %3, ptr %0, align 8, !tbaa !443
  %4 = getelementptr inbounds nuw i8, ptr %0, i64 8
  %5 = getelementptr inbounds nuw i8, ptr %1, i64 8
  %6 = load ptr, ptr %5, align 8, !tbaa !31
  store ptr %6, ptr %4, align 8, !tbaa !31
  %7 = getelementptr inbounds nuw i8, ptr %0, i64 16
  %8 = getelementptr inbounds nuw i8, ptr %1, i64 16
  %9 = load ptr, ptr %8, align 8, !tbaa !211
  store ptr %9, ptr %7, align 8, !tbaa !211
  %10 = getelementptr inbounds nuw i8, ptr %0, i64 24
  %11 = getelementptr inbounds nuw i8, ptr %1, i64 24
  %12 = load ptr, ptr %11, align 8, !tbaa !3
  store ptr %12, ptr %10, align 8, !tbaa !3
  store ptr inttoptr (i64 1 to ptr), ptr %11, align 8, !tbaa !3
  %13 = getelementptr inbounds nuw i8, ptr %0, i64 32
  %14 = getelementptr inbounds nuw i8, ptr %1, i64 32
  %15 = load i32, ptr %14, align 8, !tbaa !444
  store i32 %15, ptr %13, align 8, !tbaa !444
  %16 = getelementptr inbounds nuw i8, ptr %0, i64 40
  %17 = getelementptr inbounds nuw i8, ptr %1, i64 40
  %18 = load ptr, ptr %17, align 8, !tbaa !77
  store ptr %18, ptr %16, align 8, !tbaa !77
  store i8 0, ptr %1, align 8, !tbaa !443
  ret void
}